target datalayout = "e-m:e-p270:32:32-p271:32:32-p272:64:64-i64:64-i128:128-f80:128-n8:16:32:64-S128"
target triple = "x86_64-pc-linux-gnu"

%struct.ident_t = type { i32, i32, i32, i32, ptr }
%"struct.faiss::VectorDistance" = type { i64, float }

@1 = private unnamed_addr constant %struct.ident_t { i32 0, i32 514, i32 0, i32 22, ptr @0 }, align 8

; Function Attrs: mustprogress uwtable
define linkonce_odr noundef float @_ZNK5faiss14VectorDistanceILNS_10MetricTypeE1EEclEPKfS4_(ptr noundef nonnull align 8 dereferenceable(16) %0, ptr noundef %1, ptr noundef %2) #0 comdat align 2 {
  %4 = alloca ptr, align 8
  %5 = alloca ptr, align 8
  %6 = alloca ptr, align 8
  store ptr %0, ptr %4, align 8
  store ptr %1, ptr %5, align 8
  store ptr %2, ptr %6, align 8
  %7 = load ptr, ptr %4, align 8
  %8 = load ptr, ptr %5, align 8
  %9 = load ptr, ptr %6, align 8
  %10 = getelementptr inbounds %"struct.faiss::VectorDistance", ptr %7, i32 0, i32 0
  %11 = load i64, ptr %10, align 8
  %12 = call noundef float @_ZN5faiss10fvec_L2sqrEPKfS1_m(ptr noundef %8, ptr noundef %9, i64 noundef %11)
  ret float %12
}

; Function Attrs: norecurse nounwind uwtable
define internal void @_ZN5faiss12_GLOBAL__N_133pairwise_extra_distances_templateINS_14VectorDistanceILNS_10MetricTypeE1EEEEEvT_lPKflS7_Pflll.omp_outlined(ptr noalias noundef %0, ptr noalias noundef %1, ptr noundef nonnull align 8 dereferenceable(8) %2, ptr noundef nonnull align 8 dereferenceable(8) %3, ptr noundef nonnull align 8 dereferenceable(8) %4, ptr noundef nonnull align 8 dereferenceable(8) %5, ptr noundef nonnull align 8 dereferenceable(8) %6, ptr noundef nonnull align 8 dereferenceable(8) %7, ptr noundef nonnull align 8 dereferenceable(8) %8, ptr noundef nonnull align 8 dereferenceable(16) %9, ptr noundef nonnull align 8 dereferenceable(8) %10) #5 personality ptr @__gxx_personality_v0 {
  %12 = alloca ptr, align 8
  %13 = alloca ptr, align 8
  %14 = alloca ptr, align 8
  %15 = alloca ptr, align 8
  %16 = alloca ptr, align 8
  %17 = alloca ptr, align 8
  %18 = alloca ptr, align 8
  %19 = alloca ptr, align 8
  %20 = alloca ptr, align 8
  %21 = alloca ptr, align 8
  %22 = alloca ptr, align 8
  %23 = alloca i64, align 8
  %24 = alloca i64, align 8
  %25 = alloca i64, align 8
  %26 = alloca i64, align 8
  %27 = alloca i64, align 8
  %28 = alloca i64, align 8
  %29 = alloca i64, align 8
  %30 = alloca i32, align 4
  %31 = alloca i64, align 8
  %32 = alloca ptr, align 8
  %33 = alloca ptr, align 8
  %34 = alloca ptr, align 8
  %35 = alloca i64, align 8
  store ptr %0, ptr %12, align 8
  store ptr %1, ptr %13, align 8
  store ptr %2, ptr %14, align 8
  store ptr %3, ptr %15, align 8
  store ptr %4, ptr %16, align 8
  store ptr %5, ptr %17, align 8
  store ptr %6, ptr %18, align 8
  store ptr %7, ptr %19, align 8
  store ptr %8, ptr %20, align 8
  store ptr %9, ptr %21, align 8
  store ptr %10, ptr %22, align 8
  %36 = load ptr, ptr %14, align 8
  %37 = load ptr, ptr %15, align 8
  %38 = load ptr, ptr %16, align 8
  %39 = load ptr, ptr %17, align 8
  %40 = load ptr, ptr %18, align 8
  %41 = load ptr, ptr %19, align 8
  %42 = load ptr, ptr %20, align 8
  %43 = load ptr, ptr %21, align 8
  %44 = load ptr, ptr %22, align 8
  %45 = load i64, ptr %36, align 8
  store i64 %45, ptr %24, align 8
  %46 = load i64, ptr %24, align 8
  %47 = sub nsw i64 %46, 0
  %48 = sdiv i64 %47, 1
  %49 = sub nsw i64 %48, 1
  store i64 %49, ptr %25, align 8
  store i64 0, ptr %26, align 8
  %50 = load i64, ptr %24, align 8
  %51 = icmp slt i64 0, %50
  br i1 %51, label %52, label %112

52:                                               ; preds = %11
  store i64 0, ptr %27, align 8
  %53 = load i64, ptr %25, align 8
  store i64 %53, ptr %28, align 8
  store i64 1, ptr %29, align 8
  store i32 0, ptr %30, align 4
  %54 = load ptr, ptr %12, align 8
  %55 = load i32, ptr %54, align 4
  call void @__kmpc_for_static_init_8(ptr @1, i32 %55, i32 34, ptr %30, ptr %27, ptr %28, ptr %29, i64 1, i64 1)
  %56 = load i64, ptr %28, align 8
  %57 = load i64, ptr %25, align 8
  %58 = icmp sgt i64 %56, %57
  br i1 %58, label %59, label %61

59:                                               ; preds = %52
  %60 = load i64, ptr %25, align 8
  br label %63

61:                                               ; preds = %52
  %62 = load i64, ptr %28, align 8
  br label %63

63:                                               ; preds = %61, %59
  %64 = phi i64 [ %60, %59 ], [ %62, %61 ]
  store i64 %64, ptr %28, align 8
  %65 = load i64, ptr %27, align 8
  store i64 %65, ptr %23, align 8
  br label %66

66:                                               ; preds = %105, %63
  %67 = load i64, ptr %23, align 8
  %68 = load i64, ptr %28, align 8
  %69 = icmp sle i64 %67, %68
  br i1 %69, label %70, label %108

70:                                               ; preds = %66
  %71 = load i64, ptr %23, align 8
  %72 = mul nsw i64 %71, 1
  %73 = add nsw i64 0, %72
  store i64 %73, ptr %31, align 8
  %74 = load ptr, ptr %37, align 8
  %75 = load i64, ptr %31, align 8
  %76 = load i64, ptr %38, align 8
  %77 = mul nsw i64 %75, %76
  %78 = getelementptr inbounds float, ptr %74, i64 %77
  store ptr %78, ptr %32, align 8
  %79 = load ptr, ptr %39, align 8
  store ptr %79, ptr %33, align 8
  %80 = load ptr, ptr %40, align 8
  %81 = load i64, ptr %41, align 8
  %82 = load i64, ptr %31, align 8
  %83 = mul nsw i64 %81, %82
  %84 = getelementptr inbounds float, ptr %80, i64 %83
  store ptr %84, ptr %34, align 8
  store i64 0, ptr %35, align 8
  br label %85

85:                                               ; preds = %100, %70
  %86 = load i64, ptr %35, align 8
  %87 = load i64, ptr %42, align 8
  %88 = icmp slt i64 %86, %87
  br i1 %88, label %89, label %103

89:                                               ; preds = %85
  %90 = load ptr, ptr %32, align 8
  %91 = load ptr, ptr %33, align 8
  %92 = invoke noundef float @_ZNK5faiss14VectorDistanceILNS_10MetricTypeE1EEclEPKfS4_(ptr noundef nonnull align 8 dereferenceable(16) %43, ptr noundef %90, ptr noundef %91)
          to label %93 unwind label %113

93:                                               ; preds = %89
  %94 = load ptr, ptr %34, align 8
  %95 = load i64, ptr %35, align 8
  %96 = getelementptr inbounds float, ptr %94, i64 %95
  store float %92, ptr %96, align 4
  %97 = load i64, ptr %44, align 8
  %98 = load ptr, ptr %33, align 8
  %99 = getelementptr inbounds float, ptr %98, i64 %97
  store ptr %99, ptr %33, align 8
  br label %100

100:                                              ; preds = %93
  %101 = load i64, ptr %35, align 8
  %102 = add nsw i64 %101, 1
  store i64 %102, ptr %35, align 8
  br label %85, !llvm.loop !61

103:                                              ; preds = %85
  br label %104

104:                                              ; preds = %103
  br label %105

105:                                              ; preds = %104
  %106 = load i64, ptr %23, align 8
  %107 = add nsw i64 %106, 1
  store i64 %107, ptr %23, align 8
  br label %66

108:                                              ; preds = %66
  br label %109

109:                                              ; preds = %108
  %110 = load ptr, ptr %12, align 8
  %111 = load i32, ptr %110, align 4
  call void @__kmpc_for_static_fini(ptr @1, i32 %111)
  br label %112

112:                                              ; preds = %109, %11
  ret void

113:                                              ; preds = %89
  %114 = landingpad { ptr, i32 }
          catch ptr null
  %115 = extractvalue { ptr, i32 } %114, 0
  call void @__clang_call_terminate(ptr %115) #14
  unreachable
}